; Function Attrs: mustprogress uwtable
define noundef ptr @_ZNK6icu_7713DecimalFormat23getDecimalFormatSymbolsEv(ptr noundef nonnull readonly align 8 captures(none) dereferenceable(72) %0) unnamed_addr #1 align 2 {
  %2 = getelementptr inbounds nuw i8, ptr %0, i64 64
  %3 = load ptr, ptr %2, align 8, !tbaa !25
  %4 = icmp eq ptr %3, null
  br i1 %4, label %11, label %5

5:                                                ; preds = %1
  %6 = getelementptr inbounds nuw i8, ptr %3, i64 768
  %7 = load ptr, ptr %6, align 8, !tbaa !32
  %.not = icmp eq ptr %7, null
  br i1 %.not, label %8, label %11

8:                                                ; preds = %5
  %9 = getelementptr inbounds nuw i8, ptr %3, i64 776
  %10 = tail call noundef ptr @_ZNK6icu_776number24LocalizedNumberFormatter23getDecimalFormatSymbolsEv(ptr noundef nonnull align 8 dereferenceable(496) %9)
  br label %11

11:                                               ; preds = %5, %1, %8
  %.0 = phi ptr [ %10, %8 ], [ null, %1 ], [ %7, %5 ]
  ret ptr %.0
}